target datalayout = "e-m:e-p270:32:32-p271:32:32-p272:64:64-i64:64-i128:128-f80:128-n8:16:32:64-S128"
target triple = "x86_64-pc-linux-gnu"

%struct.H5VL_object_t = type { ptr, ptr, i64 }

@H5_libinit_g = external global i8, align 1
@H5_libterm_g = external global i8, align 1
@.str = private unnamed_addr constant [97 x i8] c"generated/home/dtcxzyw/WorkSpace/Projects/compilers/llvm-opt-benchmark/bench/hdf5/hdf5/src/H5A.c\00", align 1
@H5E_FUNC_g = external global i64, align 8
@H5E_CANTINIT_g = external global i64, align 8
@.str.1 = private unnamed_addr constant [30 x i8] c"library initialization failed\00", align 1
@H5E_CANTSET_g = external global i64, align 8
@.str.2 = private unnamed_addr constant [22 x i8] c"can't set API context\00", align 1
@H5E_ATTR_g = external global i64, align 8
@H5E_CANTCREATE_g = external global i64, align 8
@.str.4 = private unnamed_addr constant [42 x i8] c"unable to asynchronously create attribute\00", align 1
@.str.6 = private unnamed_addr constant [9 x i8] c"app_file\00", align 1
@.str.7 = private unnamed_addr constant [9 x i8] c"app_func\00", align 1
@.str.8 = private unnamed_addr constant [9 x i8] c"app_line\00", align 1
@.str.9 = private unnamed_addr constant [7 x i8] c"loc_id\00", align 1
@.str.10 = private unnamed_addr constant [10 x i8] c"attr_name\00", align 1
@.str.11 = private unnamed_addr constant [8 x i8] c"type_id\00", align 1
@.str.12 = private unnamed_addr constant [9 x i8] c"space_id\00", align 1
@.str.13 = private unnamed_addr constant [8 x i8] c"acpl_id\00", align 1
@.str.14 = private unnamed_addr constant [8 x i8] c"aapl_id\00", align 1
@.str.15 = private unnamed_addr constant [6 x i8] c"es_id\00", align 1
@H5E_CANTDEC_g = external global i64, align 8
@.str.16 = private unnamed_addr constant [38 x i8] c"can't decrement count on attribute ID\00", align 1
@H5E_CANTINSERT_g = external global i64, align 8
@.str.17 = private unnamed_addr constant [34 x i8] c"can't insert token into event set\00", align 1
@__func__.H5Acreate_by_name_async = private unnamed_addr constant [24 x i8] c"H5Acreate_by_name_async\00", align 1
@.str.18 = private unnamed_addr constant [18 x i8] c"*s*sIui*s*siiiiii\00", align 1
@.str.19 = private unnamed_addr constant [9 x i8] c"obj_name\00", align 1
@.str.20 = private unnamed_addr constant [8 x i8] c"lapl_id\00", align 1

; Function Attrs: nounwind uwtable
define i64 @H5Acreate_by_name_async(ptr noundef %0, ptr noundef %1, i32 noundef %2, i64 noundef %3, ptr noundef %4, ptr noundef %5, i64 noundef %6, i64 noundef %7, i64 noundef %8, i64 noundef %9, i64 noundef %10, i64 noundef %11) #0 {
  %13 = alloca ptr, align 8
  %14 = alloca ptr, align 8
  %15 = alloca i32, align 4
  %16 = alloca i64, align 8
  %17 = alloca ptr, align 8
  %18 = alloca ptr, align 8
  %19 = alloca i64, align 8
  %20 = alloca i64, align 8
  %21 = alloca i64, align 8
  %22 = alloca i64, align 8
  %23 = alloca i64, align 8
  %24 = alloca i64, align 8
  %25 = alloca ptr, align 8
  %26 = alloca ptr, align 8
  %27 = alloca ptr, align 8
  %28 = alloca i64, align 8
  %29 = alloca i8, align 1
  %30 = alloca i8, align 1
  store ptr %0, ptr %13, align 8
  store ptr %1, ptr %14, align 8
  store i32 %2, ptr %15, align 4
  store i64 %3, ptr %16, align 8
  store ptr %4, ptr %17, align 8
  store ptr %5, ptr %18, align 8
  store i64 %6, ptr %19, align 8
  store i64 %7, ptr %20, align 8
  store i64 %8, ptr %21, align 8
  store i64 %9, ptr %22, align 8
  store i64 %10, ptr %23, align 8
  store i64 %11, ptr %24, align 8
  store ptr null, ptr %25, align 8
  store ptr null, ptr %26, align 8
  store ptr null, ptr %27, align 8
  store i64 -1, ptr %28, align 8
  store i8 0, ptr %29, align 1
  store i8 0, ptr %30, align 1
  %31 = load i8, ptr @H5_libinit_g, align 1
  %32 = trunc i8 %31 to i1
  br i1 %32, label %37, label %33

33:                                               ; preds = %12
  %34 = load i8, ptr @H5_libterm_g, align 1
  %35 = trunc i8 %34 to i1
  %36 = xor i1 %35, true
  br label %37

37:                                               ; preds = %33, %12
  %38 = phi i1 [ false, %12 ], [ %36, %33 ]
  %39 = xor i1 %38, true
  %40 = xor i1 %39, true
  %41 = zext i1 %40 to i32
  %42 = sext i32 %41 to i64
  %43 = icmp ne i64 %42, 0
  br i1 %43, label %44, label %68

44:                                               ; preds = %37
  %45 = call i32 @H5_init_library()
  %46 = icmp slt i32 %45, 0
  %47 = xor i1 %46, true
  %48 = xor i1 %47, true
  %49 = zext i1 %48 to i32
  %50 = sext i32 %49 to i64
  %51 = icmp ne i64 %50, 0
  br i1 %51, label %52, label %67

52:                                               ; preds = %44
  br label %53

53:                                               ; preds = %52
  br label %54

54:                                               ; preds = %53
  br label %55

55:                                               ; preds = %54
  %56 = load i64, ptr @H5E_FUNC_g, align 8
  %57 = load i64, ptr @H5E_CANTINIT_g, align 8
  %58 = call i32 (ptr, ptr, i32, i64, i64, ptr, ...) @H5E_printf_stack(ptr noundef @.str, ptr noundef @__func__.H5Acreate_by_name_async, i32 noundef 402, i64 noundef %56, i64 noundef %57, ptr noundef @.str.1)
  br label %59

59:                                               ; preds = %55
  store i8 1, ptr %30, align 1
  %60 = load i8, ptr %30, align 1
  %61 = trunc i8 %60 to i1
  %62 = zext i1 %61 to i8
  store i8 %62, ptr %30, align 1
  br label %63

63:                                               ; preds = %59
  br label %64

64:                                               ; preds = %63
  store i64 -1, ptr %28, align 8
  br label %181

65:                                               ; No predecessors!
  br label %66

66:                                               ; preds = %65
  br label %67

67:                                               ; preds = %66, %44
  br label %68

68:                                               ; preds = %67, %37
  %69 = call i32 @H5CX_push()
  %70 = icmp slt i32 %69, 0
  %71 = xor i1 %70, true
  %72 = xor i1 %71, true
  %73 = zext i1 %72 to i32
  %74 = sext i32 %73 to i64
  %75 = icmp ne i64 %74, 0
  br i1 %75, label %76, label %91

76:                                               ; preds = %68
  br label %77

77:                                               ; preds = %76
  br label %78

78:                                               ; preds = %77
  br label %79

79:                                               ; preds = %78
  %80 = load i64, ptr @H5E_FUNC_g, align 8
  %81 = load i64, ptr @H5E_CANTSET_g, align 8
  %82 = call i32 (ptr, ptr, i32, i64, i64, ptr, ...) @H5E_printf_stack(ptr noundef @.str, ptr noundef @__func__.H5Acreate_by_name_async, i32 noundef 402, i64 noundef %80, i64 noundef %81, ptr noundef @.str.2)
  br label %83

83:                                               ; preds = %79
  store i8 1, ptr %30, align 1
  %84 = load i8, ptr %30, align 1
  %85 = trunc i8 %84 to i1
  %86 = zext i1 %85 to i8
  store i8 %86, ptr %30, align 1
  br label %87

87:                                               ; preds = %83
  br label %88

88:                                               ; preds = %87
  store i64 -1, ptr %28, align 8
  br label %181

89:                                               ; No predecessors!
  br label %90

90:                                               ; preds = %89
  br label %92

91:                                               ; preds = %68
  store i8 1, ptr %29, align 1
  br label %92

92:                                               ; preds = %91, %90
  %93 = call i32 @H5E_clear_stack()
  %94 = load i64, ptr %24, align 8
  %95 = icmp ne i64 0, %94
  br i1 %95, label %96, label %97

96:                                               ; preds = %92
  store ptr %26, ptr %27, align 8
  br label %97

97:                                               ; preds = %96, %92
  %98 = load i64, ptr %16, align 8
  %99 = load ptr, ptr %17, align 8
  %100 = load ptr, ptr %18, align 8
  %101 = load i64, ptr %19, align 8
  %102 = load i64, ptr %20, align 8
  %103 = load i64, ptr %21, align 8
  %104 = load i64, ptr %22, align 8
  %105 = load i64, ptr %23, align 8
  %106 = load ptr, ptr %27, align 8
  %107 = call i64 @H5A__create_by_name_api_common(i64 noundef %98, ptr noundef %99, ptr noundef %100, i64 noundef %101, i64 noundef %102, i64 noundef %103, i64 noundef %104, i64 noundef %105, ptr noundef %106, ptr noundef %25)
  store i64 %107, ptr %28, align 8
  %108 = icmp slt i64 %107, 0
  br i1 %108, label %109, label %124

109:                                              ; preds = %97
  br label %110

110:                                              ; preds = %109
  br label %111

111:                                              ; preds = %110
  br label %112

112:                                              ; preds = %111
  %113 = load i64, ptr @H5E_ATTR_g, align 8
  %114 = load i64, ptr @H5E_CANTCREATE_g, align 8
  %115 = call i32 (ptr, ptr, i32, i64, i64, ptr, ...) @H5E_printf_stack(ptr noundef @.str, ptr noundef @__func__.H5Acreate_by_name_async, i32 noundef 411, i64 noundef %113, i64 noundef %114, ptr noundef @.str.4)
  br label %116

116:                                              ; preds = %112
  store i8 1, ptr %30, align 1
  %117 = load i8, ptr %30, align 1
  %118 = trunc i8 %117 to i1
  %119 = zext i1 %118 to i8
  store i8 %119, ptr %30, align 1
  br label %120

120:                                              ; preds = %116
  br label %121

121:                                              ; preds = %120
  store i64 -1, ptr %28, align 8
  br label %181

122:                                              ; No predecessors!
  br label %123

123:                                              ; preds = %122
  br label %124

124:                                              ; preds = %123, %97
  %125 = load ptr, ptr %26, align 8
  %126 = icmp ne ptr null, %125
  br i1 %126, label %127, label %180

127:                                              ; preds = %124
  %128 = load i64, ptr %24, align 8
  %129 = load ptr, ptr %25, align 8
  %130 = getelementptr inbounds %struct.H5VL_object_t, ptr %129, i32 0, i32 1
  %131 = load ptr, ptr %130, align 8
  %132 = load ptr, ptr %26, align 8
  %133 = load ptr, ptr %13, align 8
  %134 = load ptr, ptr %14, align 8
  %135 = load i32, ptr %15, align 4
  %136 = load i64, ptr %16, align 8
  %137 = load ptr, ptr %17, align 8
  %138 = load ptr, ptr %18, align 8
  %139 = load i64, ptr %19, align 8
  %140 = load i64, ptr %20, align 8
  %141 = load i64, ptr %21, align 8
  %142 = load i64, ptr %22, align 8
  %143 = load i64, ptr %23, align 8
  %144 = load i64, ptr %24, align 8
  %145 = call i32 (i64, ptr, ptr, ptr, ptr, ...) @H5ES_insert(i64 noundef %128, ptr noundef %131, ptr noundef %132, ptr noundef @__func__.H5Acreate_by_name_async, ptr noundef @.str.18, ptr noundef @.str.6, ptr noundef %133, ptr noundef @.str.7, ptr noundef %134, ptr noundef @.str.8, i32 noundef %135, ptr noundef @.str.9, i64 noundef %136, ptr noundef @.str.19, ptr noundef %137, ptr noundef @.str.10, ptr noundef %138, ptr noundef @.str.11, i64 noundef %139, ptr noundef @.str.12, i64 noundef %140, ptr noundef @.str.13, i64 noundef %141, ptr noundef @.str.14, i64 noundef %142, ptr noundef @.str.20, i64 noundef %143, ptr noundef @.str.15, i64 noundef %144)
  %146 = icmp slt i32 %145, 0
  br i1 %146, label %147, label %179

147:                                              ; preds = %127
  %148 = load i64, ptr %28, align 8
  %149 = call i32 @H5I_dec_app_ref(i64 noundef %148)
  %150 = icmp slt i32 %149, 0
  br i1 %150, label %151, label %164

151:                                              ; preds = %147
  br label %152

152:                                              ; preds = %151
  br label %153

153:                                              ; preds = %152
  br label %154

154:                                              ; preds = %153
  %155 = load i64, ptr @H5E_ATTR_g, align 8
  %156 = load i64, ptr @H5E_CANTDEC_g, align 8
  %157 = call i32 (ptr, ptr, i32, i64, i64, ptr, ...) @H5E_printf_stack(ptr noundef @.str, ptr noundef @__func__.H5Acreate_by_name_async, i32 noundef 420, i64 noundef %155, i64 noundef %156, ptr noundef @.str.16)
  br label %158

158:                                              ; preds = %154
  store i8 1, ptr %30, align 1
  %159 = load i8, ptr %30, align 1
  %160 = trunc i8 %159 to i1
  %161 = zext i1 %160 to i8
  store i8 %161, ptr %30, align 1
  br label %162

162:                                              ; preds = %158
  store i64 -1, ptr %28, align 8
  br label %163

163:                                              ; preds = %162
  br label %164

164:                                              ; preds = %163, %147
  br label %165

165:                                              ; preds = %164
  br label %166

166:                                              ; preds = %165
  br label %167

167:                                              ; preds = %166
  %168 = load i64, ptr @H5E_ATTR_g, align 8
  %169 = load i64, ptr @H5E_CANTINSERT_g, align 8
  %170 = call i32 (ptr, ptr, i32, i64, i64, ptr, ...) @H5E_printf_stack(ptr noundef @.str, ptr noundef @__func__.H5Acreate_by_name_async, i32 noundef 421, i64 noundef %168, i64 noundef %169, ptr noundef @.str.17)
  br label %171

171:                                              ; preds = %167
  store i8 1, ptr %30, align 1
  %172 = load i8, ptr %30, align 1
  %173 = trunc i8 %172 to i1
  %174 = zext i1 %173 to i8
  store i8 %174, ptr %30, align 1
  br label %175

175:                                              ; preds = %171
  br label %176

176:                                              ; preds = %175
  store i64 -1, ptr %28, align 8
  br label %181

177:                                              ; No predecessors!
  br label %178

178:                                              ; preds = %177
  br label %179

179:                                              ; preds = %178, %127
  br label %180

180:                                              ; preds = %179, %124
  br label %181

181:                                              ; preds = %180, %176, %121, %88, %64
  %182 = load i8, ptr %29, align 1
  %183 = trunc i8 %182 to i1
  %184 = xor i1 %183, true
  %185 = xor i1 %184, true
  %186 = zext i1 %185 to i32
  %187 = sext i32 %186 to i64
  %188 = icmp ne i64 %187, 0
  br i1 %188, label %189, label %191

189:                                              ; preds = %181
  %190 = call i32 @H5CX_pop(i1 noundef zeroext true)
  store i8 0, ptr %29, align 1
  br label %191

191:                                              ; preds = %189, %181
  %192 = load i8, ptr %30, align 1
  %193 = trunc i8 %192 to i1
  %194 = xor i1 %193, true
  %195 = xor i1 %194, true
  %196 = zext i1 %195 to i32
  %197 = sext i32 %196 to i64
  %198 = icmp ne i64 %197, 0
  br i1 %198, label %199, label %201

199:                                              ; preds = %191
  %200 = call i32 @H5E_dump_api_stack()
  br label %201

201:                                              ; preds = %199, %191
  %202 = load i64, ptr %28, align 8
  ret i64 %202
}