; Function Attrs: nounwind uwtable
define range(i64 -1, -9223372036854775808) i64 @H5Acreate_by_name_async(ptr noundef %0, ptr noundef %1, i32 noundef %2, i64 noundef %3, ptr noundef %4, ptr noundef %5, i64 noundef %6, i64 noundef %7, i64 noundef %8, i64 noundef %9, i64 noundef %10, i64 noundef %11) local_unnamed_addr #0 {
  %13 = alloca ptr, align 8
  %14 = alloca ptr, align 8
  store ptr null, ptr %13, align 8
  store ptr null, ptr %14, align 8
  %15 = load i8, ptr @H5_libinit_g, align 1
  %16 = trunc i8 %15 to i1
  %17 = load i8, ptr @H5_libterm_g, align 1
  %18 = trunc i8 %17 to i1
  %19 = select i1 %16, i1 true, i1 %18
  br i1 %19, label %27, label %20

20:                                               ; preds = %12
  %21 = tail call i32 @H5_init_library() #4
  %22 = icmp slt i32 %21, 0
  br i1 %22, label %23, label %27

23:                                               ; preds = %20
  %24 = load i64, ptr @H5E_FUNC_g, align 8
  %25 = load i64, ptr @H5E_CANTINIT_g, align 8
  %26 = tail call i32 (ptr, ptr, i32, i64, i64, ptr, ...) @H5E_printf_stack(ptr noundef nonnull @.str, ptr noundef nonnull @__func__.H5Acreate_by_name_async, i32 noundef 402, i64 noundef %24, i64 noundef %25, ptr noundef nonnull @.str.1) #4
  br label %.thread45

27:                                               ; preds = %20, %12
  %28 = tail call i32 @H5CX_push() #4
  %29 = icmp slt i32 %28, 0
  br i1 %29, label %30, label %34

30:                                               ; preds = %27
  %31 = load i64, ptr @H5E_FUNC_g, align 8
  %32 = load i64, ptr @H5E_CANTSET_g, align 8
  %33 = tail call i32 (ptr, ptr, i32, i64, i64, ptr, ...) @H5E_printf_stack(ptr noundef nonnull @.str, ptr noundef nonnull @__func__.H5Acreate_by_name_async, i32 noundef 402, i64 noundef %31, i64 noundef %32, ptr noundef nonnull @.str.2) #4
  br label %.thread45

34:                                               ; preds = %27
  %35 = tail call i32 @H5E_clear_stack() #4
  %.not = icmp eq i64 %11, 0
  %spec.select = select i1 %.not, ptr null, ptr %14
  %36 = call fastcc i64 @H5A__create_by_name_api_common(i64 noundef %3, ptr noundef %4, ptr noundef %5, i64 noundef %6, i64 noundef %7, i64 noundef %8, i64 noundef %9, i64 noundef %10, ptr noundef %spec.select, ptr noundef nonnull %13)
  %37 = icmp slt i64 %36, 0
  br i1 %37, label %38, label %42

38:                                               ; preds = %34
  %39 = load i64, ptr @H5E_ATTR_g, align 8
  %40 = load i64, ptr @H5E_CANTCREATE_g, align 8
  %41 = call i32 (ptr, ptr, i32, i64, i64, ptr, ...) @H5E_printf_stack(ptr noundef nonnull @.str, ptr noundef nonnull @__func__.H5Acreate_by_name_async, i32 noundef 411, i64 noundef %39, i64 noundef %40, ptr noundef nonnull @.str.4) #4
  br label %.thread51

42:                                               ; preds = %34
  %43 = load ptr, ptr %14, align 8
  %.not36 = icmp eq ptr %43, null
  br i1 %.not36, label %62, label %44

44:                                               ; preds = %42
  %45 = load ptr, ptr %13, align 8
  %46 = getelementptr inbounds i8, ptr %45, i64 8
  %47 = load ptr, ptr %46, align 8
  %48 = call i32 (i64, ptr, ptr, ptr, ptr, ...) @H5ES_insert(i64 noundef %11, ptr noundef %47, ptr noundef nonnull %43, ptr noundef nonnull @__func__.H5Acreate_by_name_async, ptr noundef nonnull @.str.18, ptr noundef nonnull @.str.6, ptr noundef %0, ptr noundef nonnull @.str.7, ptr noundef %1, ptr noundef nonnull @.str.8, i32 noundef %2, ptr noundef nonnull @.str.9, i64 noundef %3, ptr noundef nonnull @.str.19, ptr noundef %4, ptr noundef nonnull @.str.10, ptr noundef %5, ptr noundef nonnull @.str.11, i64 noundef %6, ptr noundef nonnull @.str.12, i64 noundef %7, ptr noundef nonnull @.str.13, i64 noundef %8, ptr noundef nonnull @.str.14, i64 noundef %9, ptr noundef nonnull @.str.20, i64 noundef %10, ptr noundef nonnull @.str.15, i64 noundef %11) #4
  %49 = icmp slt i32 %48, 0
  br i1 %49, label %50, label %62

50:                                               ; preds = %44
  %51 = call i32 @H5I_dec_app_ref(i64 noundef %36) #4
  %52 = icmp slt i32 %51, 0
  br i1 %52, label %53, label %57

53:                                               ; preds = %50
  %54 = load i64, ptr @H5E_ATTR_g, align 8
  %55 = load i64, ptr @H5E_CANTDEC_g, align 8
  %56 = call i32 (ptr, ptr, i32, i64, i64, ptr, ...) @H5E_printf_stack(ptr noundef nonnull @.str, ptr noundef nonnull @__func__.H5Acreate_by_name_async, i32 noundef 420, i64 noundef %54, i64 noundef %55, ptr noundef nonnull @.str.16) #4
  br label %57

57:                                               ; preds = %50, %53
  %58 = load i64, ptr @H5E_ATTR_g, align 8
  %59 = load i64, ptr @H5E_CANTINSERT_g, align 8
  %60 = call i32 (ptr, ptr, i32, i64, i64, ptr, ...) @H5E_printf_stack(ptr noundef nonnull @.str, ptr noundef nonnull @__func__.H5Acreate_by_name_async, i32 noundef 421, i64 noundef %58, i64 noundef %59, ptr noundef nonnull @.str.17) #4
  br label %.thread51

.thread51:                                        ; preds = %57, %38
  %61 = call i32 @H5CX_pop(i1 noundef zeroext true) #4
  br label %.thread45

62:                                               ; preds = %42, %44
  %63 = call i32 @H5CX_pop(i1 noundef zeroext true) #4
  br label %65

.thread45:                                        ; preds = %30, %23, %.thread51
  %64 = call i32 @H5E_dump_api_stack() #4
  br label %65

65:                                               ; preds = %62, %.thread45
  %.0324048 = phi i64 [ -1, %.thread45 ], [ %36, %62 ]
  ret i64 %.0324048
}